target datalayout = "e-m:e-p270:32:32-p271:32:32-p272:64:64-i64:64-i128:128-f80:128-n8:16:32:64-S128"
target triple = "x86_64-pc-linux-gnu"

%struct.SDL_GUID = type { [16 x i8] }
%struct.SDL_VirtualJoystickDesc = type { i32, i16, i16, i16, i16, i16, i16, i16, i16, i16, i16, [2 x i16], i32, i32, ptr, ptr, ptr, ptr, ptr, ptr, ptr, ptr, ptr, ptr, ptr, ptr }
%struct.joystick_hwdata = type { i32, i8, ptr, i32, %struct.SDL_GUID, %struct.SDL_VirtualJoystickDesc, i32, ptr, ptr, ptr, ptr, ptr, ptr, i8, i32, i32, ptr, ptr, ptr }
%struct.SDL_Joystick = type { i32, ptr, ptr, ptr, %struct.SDL_GUID, i16, i64, i8, i8, i32, ptr, i32, ptr, i32, ptr, i32, ptr, i32, ptr, i32, i32, ptr, i16, i16, i64, i64, i16, i16, i64, i64, i8, i8, i8, i64, i8, i32, i32, i32, i8, i32, ptr, i32, ptr, [3 x [3 x float]], i64, ptr, ptr, i32, i32, ptr }

@.str.31 = private unnamed_addr constant [46 x i8] c"SetSensorsEnabled failed, device disconnected\00", align 1

; Function Attrs: nounwind uwtable
define internal zeroext i1 @VIRTUAL_JoystickSetSensorsEnabled(ptr noundef %0, i1 noundef zeroext %1) #0 {
  %3 = alloca ptr, align 8
  %4 = alloca i8, align 1
  %5 = alloca i8, align 1
  %6 = alloca ptr, align 8
  store ptr %0, ptr %3, align 8
  %7 = zext i1 %1 to i8
  store i8 %7, ptr %4, align 1
  call void @llvm.lifetime.start.p0(i64 1, ptr %5) #7
  call void @SDL_AssertJoysticksLocked()
  %8 = load ptr, ptr %3, align 8
  %9 = getelementptr inbounds nuw %struct.SDL_Joystick, ptr %8, i32 0, i32 46
  %10 = load ptr, ptr %9, align 8
  %11 = icmp ne ptr %10, null
  br i1 %11, label %12, label %45

12:                                               ; preds = %2
  call void @llvm.lifetime.start.p0(i64 8, ptr %6) #7
  %13 = load ptr, ptr %3, align 8
  %14 = getelementptr inbounds nuw %struct.SDL_Joystick, ptr %13, i32 0, i32 46
  %15 = load ptr, ptr %14, align 8
  store ptr %15, ptr %6, align 8
  %16 = load ptr, ptr %6, align 8
  %17 = getelementptr inbounds nuw %struct.joystick_hwdata, ptr %16, i32 0, i32 5
  %18 = getelementptr inbounds nuw %struct.SDL_VirtualJoystickDesc, ptr %17, i32 0, i32 24
  %19 = load ptr, ptr %18, align 8
  %20 = icmp ne ptr %19, null
  br i1 %20, label %21, label %34

21:                                               ; preds = %12
  %22 = load ptr, ptr %6, align 8
  %23 = getelementptr inbounds nuw %struct.joystick_hwdata, ptr %22, i32 0, i32 5
  %24 = getelementptr inbounds nuw %struct.SDL_VirtualJoystickDesc, ptr %23, i32 0, i32 24
  %25 = load ptr, ptr %24, align 8
  %26 = load ptr, ptr %6, align 8
  %27 = getelementptr inbounds nuw %struct.joystick_hwdata, ptr %26, i32 0, i32 5
  %28 = getelementptr inbounds nuw %struct.SDL_VirtualJoystickDesc, ptr %27, i32 0, i32 17
  %29 = load ptr, ptr %28, align 8
  %30 = load i8, ptr %4, align 1, !range !12, !noundef !13
  %31 = trunc i8 %30 to i1
  %32 = call zeroext i1 %25(ptr noundef %29, i1 noundef zeroext %31)
  %33 = zext i1 %32 to i8
  store i8 %33, ptr %5, align 1
  br label %35

34:                                               ; preds = %12
  store i8 1, ptr %5, align 1
  br label %35

35:                                               ; preds = %34, %21
  %36 = load i8, ptr %5, align 1, !range !12, !noundef !13
  %37 = trunc i8 %36 to i1
  br i1 %37, label %38, label %44

38:                                               ; preds = %35
  %39 = load i8, ptr %4, align 1, !range !12, !noundef !13
  %40 = trunc i8 %39 to i1
  %41 = load ptr, ptr %6, align 8
  %42 = getelementptr inbounds nuw %struct.joystick_hwdata, ptr %41, i32 0, i32 13
  %43 = zext i1 %40 to i8
  store i8 %43, ptr %42, align 8
  br label %44

44:                                               ; preds = %38, %35
  call void @llvm.lifetime.end.p0(i64 8, ptr %6) #7
  br label %48

45:                                               ; preds = %2
  %46 = call zeroext i1 (ptr, ...) @SDL_SetError_REAL(ptr noundef @.str.31)
  %47 = zext i1 %46 to i8
  store i8 %47, ptr %5, align 1
  br label %48

48:                                               ; preds = %45, %44
  %49 = load i8, ptr %5, align 1, !range !12, !noundef !13
  %50 = trunc i8 %49 to i1
  call void @llvm.lifetime.end.p0(i64 1, ptr %5) #7
  ret i1 %50
}