; Function Attrs: nounwind uwtable
define internal zeroext i1 @VIRTUAL_JoystickSetSensorsEnabled(ptr noundef readonly captures(none) %0, i1 noundef zeroext %1) #0 {
  %3 = zext i1 %1 to i8
  tail call void @SDL_AssertJoysticksLocked() #8
  %4 = getelementptr inbounds nuw i8, ptr %0, i64 328
  %5 = load ptr, ptr %4, align 8
  %.not = icmp eq ptr %5, null
  br i1 %.not, label %14, label %6

6:                                                ; preds = %2
  %7 = getelementptr inbounds nuw i8, ptr %5, i64 160
  %8 = load ptr, ptr %7, align 8
  %.not11 = icmp eq ptr %8, null
  br i1 %.not11, label %.thread, label %9

9:                                                ; preds = %6
  %10 = getelementptr inbounds nuw i8, ptr %5, i64 104
  %11 = load ptr, ptr %10, align 8
  %12 = tail call zeroext i1 %8(ptr noundef %11, i1 noundef zeroext %1) #8
  br i1 %12, label %.thread, label %16

.thread:                                          ; preds = %6, %9
  %13 = getelementptr inbounds nuw i8, ptr %5, i64 232
  store i8 %3, ptr %13, align 8
  br label %16

14:                                               ; preds = %2
  %15 = tail call zeroext i1 (ptr, ...) @SDL_SetError_REAL(ptr noundef nonnull @.str.31) #8
  br label %16

16:                                               ; preds = %9, %.thread, %14
  %.1 = phi i1 [ %15, %14 ], [ true, %.thread ], [ false, %9 ]
  ret i1 %.1
}